; Function Attrs: mustprogress uwtable
define hidden noundef nonnull align 8 dereferenceable(8) ptr @_ZN4cvc54mainlsERSoRKNS0_15PortfolioConfigE(ptr noundef nonnull returned align 8 dereferenceable(8) %0, ptr noundef nonnull readonly align 8 captures(none) dereferenceable(32) %1) local_unnamed_addr #3 {
  %3 = load ptr, ptr %1, align 8, !tbaa !73
  %4 = getelementptr inbounds nuw i8, ptr %1, i64 8
  %5 = load ptr, ptr %4, align 8, !tbaa !73
  %.not12 = icmp eq ptr %3, %5
  br i1 %.not12, label %._crit_edge, label %.lr.ph

._crit_edge:                                      ; preds = %.lr.ph, %2
  %6 = tail call noundef nonnull align 8 dereferenceable(8) ptr @_ZSt16__ostream_insertIcSt11char_traitsIcEERSt13basic_ostreamIT_T0_ES6_PKS3_l(ptr noundef nonnull align 8 dereferenceable(8) %0, ptr noundef nonnull @.str.8, i64 noundef 8)
  %7 = getelementptr inbounds nuw i8, ptr %1, i64 24
  %8 = load double, ptr %7, align 8, !tbaa !88
  %9 = tail call noundef nonnull align 8 dereferenceable(8) ptr @_ZNSo9_M_insertIdEERSoT_(ptr noundef nonnull align 8 dereferenceable(8) %0, double noundef %8)
  ret ptr %0

.lr.ph:                                           ; preds = %2, %.lr.ph
  %.sroa.09.013 = phi ptr [ %21, %.lr.ph ], [ %3, %2 ]
  %10 = load ptr, ptr %.sroa.09.013, align 8, !tbaa !31
  %11 = getelementptr inbounds nuw i8, ptr %.sroa.09.013, i64 8
  %12 = load i64, ptr %11, align 8, !tbaa !36
  %13 = tail call noundef nonnull align 8 dereferenceable(8) ptr @_ZSt16__ostream_insertIcSt11char_traitsIcEERSt13basic_ostreamIT_T0_ES6_PKS3_l(ptr noundef nonnull align 8 dereferenceable(8) %0, ptr noundef %10, i64 noundef %12)
  %14 = tail call noundef nonnull align 8 dereferenceable(8) ptr @_ZSt16__ostream_insertIcSt11char_traitsIcEERSt13basic_ostreamIT_T0_ES6_PKS3_l(ptr noundef nonnull align 8 dereferenceable(8) %13, ptr noundef nonnull @.str.7, i64 noundef 1)
  %15 = getelementptr inbounds nuw i8, ptr %.sroa.09.013, i64 32
  %16 = load ptr, ptr %15, align 8, !tbaa !31
  %17 = getelementptr inbounds nuw i8, ptr %.sroa.09.013, i64 40
  %18 = load i64, ptr %17, align 8, !tbaa !36
  %19 = tail call noundef nonnull align 8 dereferenceable(8) ptr @_ZSt16__ostream_insertIcSt11char_traitsIcEERSt13basic_ostreamIT_T0_ES6_PKS3_l(ptr noundef nonnull align 8 dereferenceable(8) %13, ptr noundef %16, i64 noundef %18)
  %20 = tail call noundef nonnull align 8 dereferenceable(8) ptr @_ZSt16__ostream_insertIcSt11char_traitsIcEERSt13basic_ostreamIT_T0_ES6_PKS3_l(ptr noundef nonnull align 8 dereferenceable(8) %19, ptr noundef nonnull @.str.3, i64 noundef 1)
  %21 = getelementptr inbounds nuw i8, ptr %.sroa.09.013, i64 64
  %.not = icmp eq ptr %21, %5
  br i1 %.not, label %._crit_edge, label %.lr.ph
}